target datalayout = "e-m:e-p270:32:32-p271:32:32-p272:64:64-i64:64-i128:128-f80:128-n8:16:32:64-S128"
target triple = "x86_64-pc-linux-gnu"

%struct.SurfaceDataRasInfo = type { %struct.SurfaceDataBounds, ptr, i32, i32, i32, i32, ptr, ptr, ptr, ptr, ptr, ptr, i32, %union.anon.0 }
%struct.SurfaceDataBounds = type { i32, i32, i32, i32 }
%union.anon.0 = type { ptr, [56 x i8] }

; Function Attrs: nounwind uwtable
define hidden void @ByteGrayBilinearTransformHelper(ptr noundef %0, ptr noundef %1, i32 noundef %2, i64 noundef %3, i64 noundef %4, i64 noundef %5, i64 noundef %6) #1 {
  %8 = alloca ptr, align 8
  %9 = alloca ptr, align 8
  %10 = alloca i32, align 4
  %11 = alloca i64, align 8
  %12 = alloca i64, align 8
  %13 = alloca i64, align 8
  %14 = alloca i64, align 8
  %15 = alloca i32, align 4
  %16 = alloca i32, align 4
  %17 = alloca i32, align 4
  %18 = alloca i32, align 4
  %19 = alloca i32, align 4
  %20 = alloca ptr, align 8
  %21 = alloca i32, align 4
  %22 = alloca i32, align 4
  %23 = alloca i32, align 4
  %24 = alloca i32, align 4
  %25 = alloca i32, align 4
  %26 = alloca ptr, align 8
  %27 = alloca i32, align 4
  %28 = alloca i32, align 4
  %29 = alloca i32, align 4
  %30 = alloca i32, align 4
  store ptr %0, ptr %8, align 8
  store ptr %1, ptr %9, align 8
  store i32 %2, ptr %10, align 4
  store i64 %3, ptr %11, align 8
  store i64 %4, ptr %12, align 8
  store i64 %5, ptr %13, align 8
  store i64 %6, ptr %14, align 8
  %31 = load ptr, ptr %8, align 8
  %32 = getelementptr inbounds %struct.SurfaceDataRasInfo, ptr %31, i32 0, i32 4
  %33 = load i32, ptr %32, align 8
  store i32 %33, ptr %15, align 4
  %34 = load ptr, ptr %9, align 8
  %35 = load i32, ptr %10, align 4
  %36 = mul nsw i32 %35, 4
  %37 = sext i32 %36 to i64
  %38 = getelementptr inbounds i32, ptr %34, i64 %37
  store ptr %38, ptr %20, align 8
  %39 = load ptr, ptr %8, align 8
  %40 = getelementptr inbounds %struct.SurfaceDataRasInfo, ptr %39, i32 0, i32 0
  %41 = getelementptr inbounds %struct.SurfaceDataBounds, ptr %40, i32 0, i32 0
  %42 = load i32, ptr %41, align 8
  store i32 %42, ptr %16, align 4
  %43 = load ptr, ptr %8, align 8
  %44 = getelementptr inbounds %struct.SurfaceDataRasInfo, ptr %43, i32 0, i32 0
  %45 = getelementptr inbounds %struct.SurfaceDataBounds, ptr %44, i32 0, i32 2
  %46 = load i32, ptr %45, align 8
  %47 = load i32, ptr %16, align 4
  %48 = sub nsw i32 %46, %47
  store i32 %48, ptr %18, align 4
  %49 = load ptr, ptr %8, align 8
  %50 = getelementptr inbounds %struct.SurfaceDataRasInfo, ptr %49, i32 0, i32 0
  %51 = getelementptr inbounds %struct.SurfaceDataBounds, ptr %50, i32 0, i32 1
  %52 = load i32, ptr %51, align 4
  store i32 %52, ptr %17, align 4
  %53 = load ptr, ptr %8, align 8
  %54 = getelementptr inbounds %struct.SurfaceDataRasInfo, ptr %53, i32 0, i32 0
  %55 = getelementptr inbounds %struct.SurfaceDataBounds, ptr %54, i32 0, i32 3
  %56 = load i32, ptr %55, align 4
  %57 = load i32, ptr %17, align 4
  %58 = sub nsw i32 %56, %57
  store i32 %58, ptr %19, align 4
  %59 = load i64, ptr %11, align 8
  %60 = sub nsw i64 %59, 2147483648
  store i64 %60, ptr %11, align 8
  %61 = load i64, ptr %13, align 8
  %62 = sub nsw i64 %61, 2147483648
  store i64 %62, ptr %13, align 8
  br label %63

63:                                               ; preds = %200, %7
  %64 = load ptr, ptr %9, align 8
  %65 = load ptr, ptr %20, align 8
  %66 = icmp ult ptr %64, %65
  br i1 %66, label %67, label %209

67:                                               ; preds = %63
  %68 = load i64, ptr %11, align 8
  %69 = ashr i64 %68, 32
  %70 = trunc i64 %69 to i32
  store i32 %70, ptr %21, align 4
  %71 = load i64, ptr %13, align 8
  %72 = ashr i64 %71, 32
  %73 = trunc i64 %72 to i32
  store i32 %73, ptr %22, align 4
  %74 = load i32, ptr %21, align 4
  %75 = add nsw i32 %74, 1
  %76 = load i32, ptr %18, align 4
  %77 = sub nsw i32 %75, %76
  %78 = lshr i32 %77, 31
  store i32 %78, ptr %23, align 4
  %79 = load i32, ptr %21, align 4
  %80 = ashr i32 %79, 31
  store i32 %80, ptr %25, align 4
  %81 = load i32, ptr %25, align 4
  %82 = load i32, ptr %21, align 4
  %83 = sub nsw i32 %82, %81
  store i32 %83, ptr %21, align 4
  %84 = load i32, ptr %25, align 4
  %85 = load i32, ptr %23, align 4
  %86 = add nsw i32 %85, %84
  store i32 %86, ptr %23, align 4
  %87 = load i32, ptr %22, align 4
  %88 = add nsw i32 %87, 1
  %89 = load i32, ptr %19, align 4
  %90 = sub nsw i32 %88, %89
  %91 = ashr i32 %90, 31
  store i32 %91, ptr %24, align 4
  %92 = load i32, ptr %22, align 4
  %93 = ashr i32 %92, 31
  store i32 %93, ptr %25, align 4
  %94 = load i32, ptr %25, align 4
  %95 = load i32, ptr %22, align 4
  %96 = sub nsw i32 %95, %94
  store i32 %96, ptr %22, align 4
  %97 = load i32, ptr %25, align 4
  %98 = load i32, ptr %24, align 4
  %99 = sub nsw i32 %98, %97
  store i32 %99, ptr %24, align 4
  %100 = load i32, ptr %15, align 4
  %101 = load i32, ptr %24, align 4
  %102 = and i32 %101, %100
  store i32 %102, ptr %24, align 4
  %103 = load i32, ptr %16, align 4
  %104 = load i32, ptr %21, align 4
  %105 = add nsw i32 %104, %103
  store i32 %105, ptr %21, align 4
  %106 = load ptr, ptr %8, align 8
  %107 = getelementptr inbounds %struct.SurfaceDataRasInfo, ptr %106, i32 0, i32 1
  %108 = load ptr, ptr %107, align 8
  %109 = ptrtoint ptr %108 to i64
  %110 = load i32, ptr %22, align 4
  %111 = load i32, ptr %17, align 4
  %112 = add nsw i32 %110, %111
  %113 = sext i32 %112 to i64
  %114 = load i32, ptr %15, align 4
  %115 = sext i32 %114 to i64
  %116 = mul nsw i64 %113, %115
  %117 = add nsw i64 %109, %116
  %118 = inttoptr i64 %117 to ptr
  store ptr %118, ptr %26, align 8
  br label %119

119:                                              ; preds = %67
  %120 = load ptr, ptr %26, align 8
  %121 = load i32, ptr %21, align 4
  %122 = sext i32 %121 to i64
  %123 = getelementptr inbounds i8, ptr %120, i64 %122
  %124 = load i8, ptr %123, align 1
  %125 = zext i8 %124 to i32
  store i32 %125, ptr %27, align 4
  %126 = load i32, ptr %27, align 4
  %127 = or i32 65280, %126
  %128 = shl i32 %127, 8
  %129 = load i32, ptr %27, align 4
  %130 = or i32 %128, %129
  %131 = shl i32 %130, 8
  %132 = load i32, ptr %27, align 4
  %133 = or i32 %131, %132
  %134 = load ptr, ptr %9, align 8
  %135 = getelementptr inbounds i32, ptr %134, i64 0
  store i32 %133, ptr %135, align 4
  br label %136

136:                                              ; preds = %119
  br label %137

137:                                              ; preds = %136
  %138 = load ptr, ptr %26, align 8
  %139 = load i32, ptr %21, align 4
  %140 = load i32, ptr %23, align 4
  %141 = add nsw i32 %139, %140
  %142 = sext i32 %141 to i64
  %143 = getelementptr inbounds i8, ptr %138, i64 %142
  %144 = load i8, ptr %143, align 1
  %145 = zext i8 %144 to i32
  store i32 %145, ptr %28, align 4
  %146 = load i32, ptr %28, align 4
  %147 = or i32 65280, %146
  %148 = shl i32 %147, 8
  %149 = load i32, ptr %28, align 4
  %150 = or i32 %148, %149
  %151 = shl i32 %150, 8
  %152 = load i32, ptr %28, align 4
  %153 = or i32 %151, %152
  %154 = load ptr, ptr %9, align 8
  %155 = getelementptr inbounds i32, ptr %154, i64 1
  store i32 %153, ptr %155, align 4
  br label %156

156:                                              ; preds = %137
  %157 = load ptr, ptr %26, align 8
  %158 = ptrtoint ptr %157 to i64
  %159 = load i32, ptr %24, align 4
  %160 = sext i32 %159 to i64
  %161 = add nsw i64 %158, %160
  %162 = inttoptr i64 %161 to ptr
  store ptr %162, ptr %26, align 8
  br label %163

163:                                              ; preds = %156
  %164 = load ptr, ptr %26, align 8
  %165 = load i32, ptr %21, align 4
  %166 = sext i32 %165 to i64
  %167 = getelementptr inbounds i8, ptr %164, i64 %166
  %168 = load i8, ptr %167, align 1
  %169 = zext i8 %168 to i32
  store i32 %169, ptr %29, align 4
  %170 = load i32, ptr %29, align 4
  %171 = or i32 65280, %170
  %172 = shl i32 %171, 8
  %173 = load i32, ptr %29, align 4
  %174 = or i32 %172, %173
  %175 = shl i32 %174, 8
  %176 = load i32, ptr %29, align 4
  %177 = or i32 %175, %176
  %178 = load ptr, ptr %9, align 8
  %179 = getelementptr inbounds i32, ptr %178, i64 2
  store i32 %177, ptr %179, align 4
  br label %180

180:                                              ; preds = %163
  br label %181

181:                                              ; preds = %180
  %182 = load ptr, ptr %26, align 8
  %183 = load i32, ptr %21, align 4
  %184 = load i32, ptr %23, align 4
  %185 = add nsw i32 %183, %184
  %186 = sext i32 %185 to i64
  %187 = getelementptr inbounds i8, ptr %182, i64 %186
  %188 = load i8, ptr %187, align 1
  %189 = zext i8 %188 to i32
  store i32 %189, ptr %30, align 4
  %190 = load i32, ptr %30, align 4
  %191 = or i32 65280, %190
  %192 = shl i32 %191, 8
  %193 = load i32, ptr %30, align 4
  %194 = or i32 %192, %193
  %195 = shl i32 %194, 8
  %196 = load i32, ptr %30, align 4
  %197 = or i32 %195, %196
  %198 = load ptr, ptr %9, align 8
  %199 = getelementptr inbounds i32, ptr %198, i64 3
  store i32 %197, ptr %199, align 4
  br label %200

200:                                              ; preds = %181
  %201 = load ptr, ptr %9, align 8
  %202 = getelementptr inbounds i32, ptr %201, i64 4
  store ptr %202, ptr %9, align 8
  %203 = load i64, ptr %12, align 8
  %204 = load i64, ptr %11, align 8
  %205 = add nsw i64 %204, %203
  store i64 %205, ptr %11, align 8
  %206 = load i64, ptr %14, align 8
  %207 = load i64, ptr %13, align 8
  %208 = add nsw i64 %207, %206
  store i64 %208, ptr %13, align 8
  br label %63, !llvm.loop !87

209:                                              ; preds = %63
  ret void
}