; Function Attrs: nofree norecurse nosync nounwind memory(readwrite, inaccessiblemem: none) uwtable
define hidden void @ByteGrayBilinearTransformHelper(ptr nocapture noundef readonly %0, ptr noundef writeonly %1, i32 noundef %2, i64 noundef %3, i64 noundef %4, i64 noundef %5, i64 noundef %6) #1 {
  %8 = getelementptr inbounds i8, ptr %0, i64 32
  %9 = load i32, ptr %8, align 8
  %10 = shl nsw i32 %2, 2
  %11 = sext i32 %10 to i64
  %12 = getelementptr inbounds i32, ptr %1, i64 %11
  %13 = load i32, ptr %0, align 8
  %14 = getelementptr inbounds i8, ptr %0, i64 4
  %15 = load i32, ptr %14, align 4
  %16 = icmp sgt i32 %2, 0
  br i1 %16, label %.lr.ph, label %._crit_edge

.lr.ph:                                           ; preds = %7
  %17 = add nsw i64 %5, -2147483648
  %18 = add nsw i64 %3, -2147483648
  %19 = getelementptr inbounds i8, ptr %0, i64 12
  %20 = load i32, ptr %19, align 4
  %21 = getelementptr inbounds i8, ptr %0, i64 8
  %22 = load i32, ptr %21, align 8
  %23 = add i32 %13, 1
  %.neg = sub i32 %23, %22
  %24 = add i32 %15, 1
  %.neg71 = sub i32 %24, %20
  %25 = getelementptr inbounds i8, ptr %0, i64 16
  %26 = sext i32 %9 to i64
  br label %27

27:                                               ; preds = %.lr.ph, %27
  %.083 = phi ptr [ %1, %.lr.ph ], [ %79, %27 ]
  %.06982 = phi i64 [ %18, %.lr.ph ], [ %80, %27 ]
  %.07081 = phi i64 [ %17, %.lr.ph ], [ %81, %27 ]
  %28 = lshr i64 %.06982, 32
  %29 = trunc nuw i64 %28 to i32
  %30 = lshr i64 %.07081, 32
  %31 = trunc nuw i64 %30 to i32
  %32 = add i32 %.neg, %29
  %33 = lshr i32 %32, 31
  %34 = ashr i32 %29, 31
  %35 = sub nsw i32 %29, %34
  %36 = add nsw i32 %33, %34
  %37 = add i32 %.neg71, %31
  %38 = ashr i32 %37, 31
  %.neg84 = lshr i32 %31, 31
  %39 = add nsw i32 %.neg84, %38
  %40 = and i32 %39, %9
  %41 = add nsw i32 %35, %13
  %42 = load ptr, ptr %25, align 8
  %43 = ptrtoint ptr %42 to i64
  %44 = add i32 %15, %31
  %45 = add i32 %44, %.neg84
  %46 = sext i32 %45 to i64
  %47 = mul nsw i64 %46, %26
  %48 = add nsw i64 %47, %43
  %49 = inttoptr i64 %48 to ptr
  %50 = sext i32 %41 to i64
  %51 = getelementptr inbounds i8, ptr %49, i64 %50
  %52 = load i8, ptr %51, align 1
  %53 = zext i8 %52 to i32
  %54 = mul nuw nsw i32 %53, 65793
  %55 = or disjoint i32 %54, -16777216
  store i32 %55, ptr %.083, align 4
  %56 = add nsw i32 %36, %41
  %57 = sext i32 %56 to i64
  %58 = getelementptr inbounds i8, ptr %49, i64 %57
  %59 = load i8, ptr %58, align 1
  %60 = zext i8 %59 to i32
  %61 = mul nuw nsw i32 %60, 65793
  %62 = or disjoint i32 %61, -16777216
  %63 = getelementptr inbounds i8, ptr %.083, i64 4
  store i32 %62, ptr %63, align 4
  %64 = sext i32 %40 to i64
  %65 = add nsw i64 %48, %64
  %66 = inttoptr i64 %65 to ptr
  %67 = getelementptr inbounds i8, ptr %66, i64 %50
  %68 = load i8, ptr %67, align 1
  %69 = zext i8 %68 to i32
  %70 = mul nuw nsw i32 %69, 65793
  %71 = or disjoint i32 %70, -16777216
  %72 = getelementptr inbounds i8, ptr %.083, i64 8
  store i32 %71, ptr %72, align 4
  %73 = getelementptr inbounds i8, ptr %66, i64 %57
  %74 = load i8, ptr %73, align 1
  %75 = zext i8 %74 to i32
  %76 = mul nuw nsw i32 %75, 65793
  %77 = or disjoint i32 %76, -16777216
  %78 = getelementptr inbounds i8, ptr %.083, i64 12
  store i32 %77, ptr %78, align 4
  %79 = getelementptr inbounds i8, ptr %.083, i64 16
  %80 = add nsw i64 %.06982, %4
  %81 = add nsw i64 %.07081, %6
  %82 = icmp ult ptr %79, %12
  br i1 %82, label %27, label %._crit_edge, !llvm.loop !83

._crit_edge:                                      ; preds = %27, %7
  ret void
}